target datalayout = "e-m:e-p270:32:32-p271:32:32-p272:64:64-i64:64-i128:128-f80:128-n8:16:32:64-S128"
target triple = "x86_64-pc-linux-gnu"

%union.OnigValue = type { %struct.anon }
%struct.anon = type { ptr, ptr }
%struct.CalloutListEntry = type { i32, i32, i32, i32, ptr, ptr, i32, ptr, ptr, %union.anon }
%union.anon = type { %struct.anon.1 }
%struct.anon.1 = type { i32, i32, [4 x i32], [4 x %union.OnigValue] }
%struct.RegexExt = type { ptr, ptr, ptr, i32, i32, ptr }

; Function Attrs: nounwind uwtable
define internal i32 @i_callout_callout_list_set(i64 noundef %0, i64 noundef %1, i64 noundef %2) #0 {
  %4 = alloca i64, align 8
  %5 = alloca i64, align 8
  %6 = alloca i64, align 8
  %7 = alloca i32, align 4
  %8 = alloca i64, align 8
  %9 = alloca ptr, align 8
  store i64 %0, ptr %4, align 8, !tbaa !15
  store i64 %1, ptr %5, align 8, !tbaa !15
  store i64 %2, ptr %6, align 8, !tbaa !15
  call void @llvm.lifetime.start.p0(i64 4, ptr %7) #8
  call void @llvm.lifetime.start.p0(i64 8, ptr %8) #8
  call void @llvm.lifetime.start.p0(i64 8, ptr %9) #8
  %10 = load i64, ptr %5, align 8, !tbaa !15
  store i64 %10, ptr %8, align 8, !tbaa !15
  %11 = load i64, ptr %6, align 8, !tbaa !15
  %12 = inttoptr i64 %11 to ptr
  store ptr %12, ptr %9, align 8, !tbaa !9
  %13 = load i64, ptr %8, align 8, !tbaa !15
  %14 = trunc i64 %13 to i32
  %15 = sub nsw i32 %14, 1
  store i32 %15, ptr %7, align 4, !tbaa !10
  %16 = load ptr, ptr %9, align 8, !tbaa !9
  %17 = getelementptr inbounds nuw %struct.RegexExt, ptr %16, i32 0, i32 5
  %18 = load ptr, ptr %17, align 8, !tbaa !104
  %19 = load i32, ptr %7, align 4, !tbaa !10
  %20 = sext i32 %19 to i64
  %21 = getelementptr inbounds %struct.CalloutListEntry, ptr %18, i64 %20
  %22 = getelementptr inbounds nuw %struct.CalloutListEntry, ptr %21, i32 0, i32 0
  %23 = load i32, ptr %22, align 8, !tbaa !109
  %24 = or i32 %23, 1
  store i32 %24, ptr %22, align 8, !tbaa !109
  call void @llvm.lifetime.end.p0(i64 8, ptr %9) #8
  call void @llvm.lifetime.end.p0(i64 8, ptr %8) #8
  call void @llvm.lifetime.end.p0(i64 4, ptr %7) #8
  ret i32 0
}