; Function Attrs: mustprogress nofree norecurse nosync nounwind willreturn memory(readwrite, inaccessiblemem: none) uwtable
define internal noundef i32 @i_callout_callout_list_set(i64 %0, i64 noundef %1, i64 noundef %2) #21 {
  %4 = inttoptr i64 %2 to ptr
  %5 = getelementptr inbounds nuw i8, ptr %4, i64 32
  %6 = load ptr, ptr %5, align 8, !tbaa !92
  %7 = shl i64 %1, 32
  %sext = add i64 %7, -4294967296
  %8 = ashr exact i64 %sext, 32
  %9 = getelementptr inbounds %struct.CalloutListEntry, ptr %6, i64 %8
  %10 = load i32, ptr %9, align 8, !tbaa !99
  %11 = or i32 %10, 1
  store i32 %11, ptr %9, align 8, !tbaa !99
  ret i32 0
}